target datalayout = "e-m:e-p270:32:32-p271:32:32-p272:64:64-i64:64-i128:128-f80:128-n8:16:32:64-S128"
target triple = "x86_64-pc-linux-gnu"

%struct.OnigSyntaxType = type { i32, i32, i32, i32, %struct.OnigMetaCharTableType }
%struct.OnigMetaCharTableType = type { i32, i32, i32, i32, i32, i32 }
%struct.OnigEncodingTypeST = type { ptr, ptr, i32, i32, ptr, ptr, ptr, ptr, ptr, ptr, ptr, ptr, ptr, ptr, ptr, ptr, ptr, ptr, ptr, i32, i32, i32 }
%struct.ParseEnv = type { i32, i32, ptr, ptr, i32, i32, i32, ptr, ptr, ptr, ptr, ptr, i32, i32, i32, i32, [8 x %struct.MemEnv], ptr, i32, i32, i32, i32, ptr, ptr, i32, i32 }
%struct.MemEnv = type { ptr, ptr }

; Function Attrs: nounwind uwtable
define internal i32 @is_end_of_bre_subexp(ptr noundef %0, ptr noundef %1, ptr noundef %2, ptr noundef %3) #0 {
  %5 = alloca i32, align 4
  %6 = alloca ptr, align 8
  %7 = alloca ptr, align 8
  %8 = alloca ptr, align 8
  %9 = alloca ptr, align 8
  %10 = alloca i32, align 4
  %11 = alloca i32, align 4
  store ptr %0, ptr %6, align 8, !tbaa !4
  store ptr %1, ptr %7, align 8, !tbaa !4
  store ptr %2, ptr %8, align 8, !tbaa !32
  store ptr %3, ptr %9, align 8, !tbaa !9
  call void @llvm.lifetime.start.p0(i64 4, ptr %10) #8
  %12 = load ptr, ptr %6, align 8, !tbaa !4
  %13 = load ptr, ptr %7, align 8, !tbaa !4
  %14 = icmp eq ptr %12, %13
  br i1 %14, label %15, label %16

15:                                               ; preds = %4
  store i32 1, ptr %5, align 4
  store i32 1, ptr %11, align 4
  br label %75

16:                                               ; preds = %4
  %17 = load ptr, ptr %8, align 8, !tbaa !32
  %18 = getelementptr inbounds nuw %struct.OnigEncodingTypeST, ptr %17, i32 0, i32 5
  %19 = load ptr, ptr %18, align 8, !tbaa !92
  %20 = load ptr, ptr %6, align 8, !tbaa !4
  %21 = load ptr, ptr %7, align 8, !tbaa !4
  %22 = call i32 %19(ptr noundef %20, ptr noundef %21)
  store i32 %22, ptr %10, align 4, !tbaa !10
  %23 = load i32, ptr %10, align 4, !tbaa !10
  %24 = load ptr, ptr %9, align 8, !tbaa !9
  %25 = getelementptr inbounds nuw %struct.ParseEnv, ptr %24, i32 0, i32 3
  %26 = load ptr, ptr %25, align 8, !tbaa !158
  %27 = getelementptr inbounds nuw %struct.OnigSyntaxType, ptr %26, i32 0, i32 4
  %28 = getelementptr inbounds nuw %struct.OnigMetaCharTableType, ptr %27, i32 0, i32 0
  %29 = load i32, ptr %28, align 4, !tbaa !194
  %30 = icmp eq i32 %23, %29
  br i1 %30, label %31, label %74

31:                                               ; preds = %16
  %32 = load ptr, ptr %9, align 8, !tbaa !9
  %33 = getelementptr inbounds nuw %struct.ParseEnv, ptr %32, i32 0, i32 3
  %34 = load ptr, ptr %33, align 8, !tbaa !158
  %35 = getelementptr inbounds nuw %struct.OnigSyntaxType, ptr %34, i32 0, i32 1
  %36 = load i32, ptr %35, align 4, !tbaa !195
  %37 = and i32 %36, 1048576
  %38 = icmp ne i32 %37, 0
  br i1 %38, label %74, label %39

39:                                               ; preds = %31
  %40 = load ptr, ptr %8, align 8, !tbaa !32
  %41 = getelementptr inbounds nuw %struct.OnigEncodingTypeST, ptr %40, i32 0, i32 0
  %42 = load ptr, ptr %41, align 8, !tbaa !94
  %43 = load ptr, ptr %6, align 8, !tbaa !4
  %44 = call i32 %42(ptr noundef %43)
  %45 = load ptr, ptr %6, align 8, !tbaa !4
  %46 = sext i32 %44 to i64
  %47 = getelementptr inbounds i8, ptr %45, i64 %46
  store ptr %47, ptr %6, align 8, !tbaa !4
  %48 = load ptr, ptr %6, align 8, !tbaa !4
  %49 = load ptr, ptr %7, align 8, !tbaa !4
  %50 = icmp ult ptr %48, %49
  br i1 %50, label %51, label %73

51:                                               ; preds = %39
  %52 = load ptr, ptr %8, align 8, !tbaa !32
  %53 = getelementptr inbounds nuw %struct.OnigEncodingTypeST, ptr %52, i32 0, i32 5
  %54 = load ptr, ptr %53, align 8, !tbaa !92
  %55 = load ptr, ptr %6, align 8, !tbaa !4
  %56 = load ptr, ptr %7, align 8, !tbaa !4
  %57 = call i32 %54(ptr noundef %55, ptr noundef %56)
  store i32 %57, ptr %10, align 4, !tbaa !10
  %58 = load i32, ptr %10, align 4, !tbaa !10
  %59 = icmp eq i32 %58, 41
  br i1 %59, label %71, label %60

60:                                               ; preds = %51
  %61 = load i32, ptr %10, align 4, !tbaa !10
  %62 = icmp eq i32 %61, 124
  br i1 %62, label %63, label %72

63:                                               ; preds = %60
  %64 = load ptr, ptr %9, align 8, !tbaa !9
  %65 = getelementptr inbounds nuw %struct.ParseEnv, ptr %64, i32 0, i32 3
  %66 = load ptr, ptr %65, align 8, !tbaa !158
  %67 = getelementptr inbounds nuw %struct.OnigSyntaxType, ptr %66, i32 0, i32 0
  %68 = load i32, ptr %67, align 4, !tbaa !197
  %69 = and i32 %68, 2048
  %70 = icmp ne i32 %69, 0
  br i1 %70, label %71, label %72

71:                                               ; preds = %63, %51
  store i32 1, ptr %5, align 4
  store i32 1, ptr %11, align 4
  br label %75

72:                                               ; preds = %63, %60
  br label %73

73:                                               ; preds = %72, %39
  br label %74

74:                                               ; preds = %73, %31, %16
  store i32 0, ptr %5, align 4
  store i32 1, ptr %11, align 4
  br label %75

75:                                               ; preds = %74, %71, %15
  call void @llvm.lifetime.end.p0(i64 4, ptr %10) #8
  %76 = load i32, ptr %5, align 4
  ret i32 %76
}